; Function Attrs: mustprogress nofree norecurse nosync nounwind willreturn memory(readwrite, inaccessiblemem: none) uwtable
define internal noundef ptr @wrapper_objclass(ptr noundef readonly captures(none) %0, ptr readnone captures(none) %1) #7 {
  %3 = getelementptr inbounds nuw i8, ptr %0, i64 16
  %4 = load ptr, ptr %3, align 8, !tbaa !60
  %5 = getelementptr inbounds nuw i8, ptr %4, i64 16
  %6 = load ptr, ptr %5, align 8, !tbaa !10
  %7 = load i32, ptr %6, align 8, !tbaa !16
  %8 = icmp slt i32 %7, 0
  br i1 %8, label %_Py_NewRef.exit, label %9

9:                                                ; preds = %2
  %10 = add nuw i32 %7, 1
  store i32 %10, ptr %6, align 8, !tbaa !16
  br label %_Py_NewRef.exit

_Py_NewRef.exit:                                  ; preds = %2, %9
  ret ptr %6
}